; Function Attrs: null_pointer_is_valid sspstrong uwtable
define internal noundef zeroext i1 @print_bookmark_ps(ptr noundef readonly captures(none) %0, ptr noundef %1, ptr noundef readonly captures(address_is_null) %2) #0 {
  %4 = alloca [256 x i8], align 16
  %5 = getelementptr inbounds nuw i8, ptr %0, i64 8
  %6 = load ptr, ptr %5, align 8
  call void @llvm.lifetime.start.p0(i64 256, ptr nonnull %4) #13
  %7 = icmp eq ptr %2, null
  br i1 %7, label %8, label %.preheader.i

8:                                                ; preds = %3
  store i8 0, ptr %4, align 16
  br label %ps_clean_string.exit

.preheader.i:                                     ; preds = %3, %21
  %.022.i = phi i32 [ %22, %21 ], [ 0, %3 ]
  %.01721.i = phi i32 [ %23, %21 ], [ 0, %3 ]
  %9 = sext i32 %.022.i to i64
  %10 = getelementptr i8, ptr %2, i64 %9
  %11 = load i8, ptr %10, align 1
  switch i8 %11, label %17 [
    i8 40, label %.thread.i
    i8 41, label %.thread.i
    i8 92, label %.thread.i
  ]

.thread.i:                                        ; preds = %.preheader.i, %.preheader.i, %.preheader.i
  %12 = sext i32 %.01721.i to i64
  %13 = getelementptr i8, ptr %4, i64 %12
  store i8 92, ptr %13, align 1
  %14 = add nsw i32 %.01721.i, 1
  %15 = sext i32 %14 to i64
  %16 = getelementptr i8, ptr %4, i64 %15
  store i8 %11, ptr %16, align 1
  br label %21

17:                                               ; preds = %.preheader.i
  %18 = sext i32 %.01721.i to i64
  %19 = getelementptr i8, ptr %4, i64 %18
  store i8 %11, ptr %19, align 1
  %20 = icmp eq i8 %11, 0
  br i1 %20, label %ps_clean_string.exit, label %21

21:                                               ; preds = %17, %.thread.i
  %.120.i = phi i32 [ %14, %.thread.i ], [ %.01721.i, %17 ]
  %22 = add i32 %.022.i, 1
  %23 = add nsw i32 %.120.i, 1
  %24 = icmp slt i32 %.120.i, 255
  br i1 %24, label %.preheader.i, label %ps_clean_string.exit, !llvm.loop !8

ps_clean_string.exit:                             ; preds = %17, %21, %8
  %25 = getelementptr inbounds nuw i8, ptr %6, i64 8
  %26 = load ptr, ptr %25, align 8
  %27 = call i32 (ptr, i32, ptr, ...) @__fprintf_chk(ptr noundef %26, i32 noundef 2, ptr noundef nonnull @.str.17, ptr noundef %1, ptr noundef nonnull %4)
  %28 = load ptr, ptr %25, align 8
  %29 = call i64 @fwrite(ptr nonnull @.str.18, i64 71, i64 1, ptr %28)
  %30 = load ptr, ptr %25, align 8
  %31 = call i64 @fwrite(ptr nonnull @.str.19, i64 72, i64 1, ptr %30)
  %32 = load ptr, ptr %25, align 8
  %33 = call i32 (ptr, i32, ptr, ...) @__fprintf_chk(ptr noundef %32, i32 noundef 2, ptr noundef nonnull @.str.20, ptr noundef %1)
  %34 = load ptr, ptr %25, align 8
  %35 = call i32 @ferror(ptr noundef %34) #13
  %.not = icmp eq i32 %35, 0
  call void @llvm.lifetime.end.p0(i64 256, ptr nonnull %4) #13
  ret i1 %.not
}